; Function Attrs: nounwind uwtable
define hidden ptr @ckULongArrayToJLongArray(ptr noundef %0, ptr nocapture noundef readonly %1, i64 noundef %2) local_unnamed_addr #0 {
  %4 = tail call noalias ptr @calloc(i64 noundef %2, i64 noundef 8) #16
  %5 = icmp eq ptr %4, null
  %6 = icmp ne i64 %2, 0
  %or.cond = and i1 %6, %5
  br i1 %or.cond, label %8, label %.preheader

.preheader:                                       ; preds = %3
  %.not27 = icmp eq i64 %2, 0
  br i1 %.not27, label %._crit_edge, label %.lr.ph.preheader

.lr.ph.preheader:                                 ; preds = %.preheader
  %7 = shl nuw i64 %2, 3
  tail call void @llvm.memcpy.p0.p0.i64(ptr align 8 %4, ptr align 8 %1, i64 %7, i1 false)
  br label %._crit_edge

8:                                                ; preds = %3
  %9 = load ptr, ptr %0, align 8
  %10 = getelementptr inbounds i8, ptr %9, i64 48
  %11 = load ptr, ptr %10, align 8
  %12 = tail call ptr %11(ptr noundef nonnull %0, ptr noundef nonnull @.str.5) #15
  %.not.i.i = icmp eq ptr %12, null
  br i1 %.not.i.i, label %p11ThrowOutOfMemoryError.exit, label %13

13:                                               ; preds = %8
  %14 = load ptr, ptr %0, align 8
  %15 = getelementptr inbounds i8, ptr %14, i64 112
  %16 = load ptr, ptr %15, align 8
  %17 = tail call i32 %16(ptr noundef nonnull %0, ptr noundef nonnull %12, ptr noundef null) #15
  br label %p11ThrowOutOfMemoryError.exit

._crit_edge:                                      ; preds = %.lr.ph.preheader, %.preheader
  %18 = load ptr, ptr %0, align 8
  %19 = getelementptr inbounds i8, ptr %18, i64 1440
  %20 = load ptr, ptr %19, align 8
  %21 = trunc i64 %2 to i32
  %22 = tail call ptr %20(ptr noundef nonnull %0, i32 noundef %21) #15
  %.not = icmp eq ptr %22, null
  br i1 %.not, label %27, label %23

23:                                               ; preds = %._crit_edge
  %24 = load ptr, ptr %0, align 8
  %25 = getelementptr inbounds i8, ptr %24, i64 1696
  %26 = load ptr, ptr %25, align 8
  tail call void %26(ptr noundef nonnull %0, ptr noundef nonnull %22, i32 noundef 0, i32 noundef %21, ptr noundef %4) #15
  br label %27

27:                                               ; preds = %23, %._crit_edge
  tail call void @free(ptr noundef %4) #15
  br label %p11ThrowOutOfMemoryError.exit

p11ThrowOutOfMemoryError.exit:                    ; preds = %13, %8, %27
  %.0 = phi ptr [ %22, %27 ], [ null, %8 ], [ null, %13 ]
  ret ptr %.0
}